target datalayout = "e-m:e-p270:32:32-p271:32:32-p272:64:64-i64:64-i128:128-f80:128-n8:16:32:64-S128"
target triple = "x86_64-pc-linux-gnu"

%struct.H5S_hyper_dim_t = type { i64, i64, i64, i64 }
%struct.H5S_sel_iter_t = type { ptr, i32, [32 x i64], [32 x i64], i64, i64, i32, %union.anon.2 }
%union.anon.2 = type { %struct.H5S_hyper_iter_t }
%struct.H5S_hyper_iter_t = type { [32 x i64], [32 x i64], i32, i8, [32 x %struct.H5S_hyper_dim_t], [32 x i64], [32 x i64], [32 x i8], [32 x i64], ptr, [32 x ptr] }

@H5S_init_g = external global i8, align 1
@H5_libterm_g = external global i8, align 1

; Function Attrs: nounwind uwtable
define internal i32 @H5S__hyper_iter_coords(ptr noundef %0, ptr noundef %1) #0 {
  %3 = alloca ptr, align 8
  %4 = alloca ptr, align 8
  %5 = alloca i32, align 4
  %6 = alloca i32, align 4
  %7 = alloca i32, align 4
  store ptr %0, ptr %3, align 8, !tbaa !129
  store ptr %1, ptr %4, align 8, !tbaa !33
  %8 = load i8, ptr @H5S_init_g, align 1, !tbaa !8, !range !12, !noundef !13
  %9 = trunc i8 %8 to i1
  br i1 %9, label %14, label %10

10:                                               ; preds = %2
  %11 = load i8, ptr @H5_libterm_g, align 1, !tbaa !8, !range !12, !noundef !13
  %12 = trunc i8 %11 to i1
  %13 = xor i1 %12, true
  br label %14

14:                                               ; preds = %10, %2
  %15 = phi i1 [ true, %2 ], [ %13, %10 ]
  %16 = xor i1 %15, true
  %17 = xor i1 %16, true
  %18 = zext i1 %17 to i32
  %19 = sext i32 %18 to i64
  %20 = call i64 @llvm.expect.i64(i64 %19, i64 1)
  %21 = icmp ne i64 %20, 0
  br i1 %21, label %22, label %173

22:                                               ; preds = %14
  %23 = load ptr, ptr %3, align 8, !tbaa !129
  %24 = getelementptr inbounds nuw %struct.H5S_sel_iter_t, ptr %23, i32 0, i32 7
  %25 = getelementptr inbounds nuw %struct.H5S_hyper_iter_t, ptr %24, i32 0, i32 3
  %26 = load i8, ptr %25, align 4, !tbaa !14, !range !12, !noundef !13
  %27 = trunc i8 %26 to i1
  br i1 %27, label %28, label %161

28:                                               ; preds = %22
  %29 = load ptr, ptr %3, align 8, !tbaa !129
  %30 = getelementptr inbounds nuw %struct.H5S_sel_iter_t, ptr %29, i32 0, i32 7
  %31 = getelementptr inbounds nuw %struct.H5S_hyper_iter_t, ptr %30, i32 0, i32 2
  %32 = load i32, ptr %31, align 8, !tbaa !14
  %33 = icmp ne i32 %32, 0
  br i1 %33, label %34, label %149

34:                                               ; preds = %28
  %35 = load ptr, ptr %3, align 8, !tbaa !129
  %36 = getelementptr inbounds nuw %struct.H5S_sel_iter_t, ptr %35, i32 0, i32 7
  %37 = getelementptr inbounds nuw %struct.H5S_hyper_iter_t, ptr %36, i32 0, i32 2
  %38 = load i32, ptr %37, align 8, !tbaa !14
  %39 = load ptr, ptr %3, align 8, !tbaa !129
  %40 = getelementptr inbounds nuw %struct.H5S_sel_iter_t, ptr %39, i32 0, i32 1
  %41 = load i32, ptr %40, align 8, !tbaa !131
  %42 = icmp ult i32 %38, %41
  br i1 %42, label %43, label %149

43:                                               ; preds = %34
  call void @llvm.lifetime.start.p0(i64 4, ptr %5) #7
  call void @llvm.lifetime.start.p0(i64 4, ptr %6) #7
  %44 = load ptr, ptr %3, align 8, !tbaa !129
  %45 = getelementptr inbounds nuw %struct.H5S_sel_iter_t, ptr %44, i32 0, i32 1
  %46 = load i32, ptr %45, align 8, !tbaa !131
  %47 = sub nsw i32 %46, 1
  store i32 %47, ptr %5, align 4, !tbaa !10
  %48 = load ptr, ptr %3, align 8, !tbaa !129
  %49 = getelementptr inbounds nuw %struct.H5S_sel_iter_t, ptr %48, i32 0, i32 7
  %50 = getelementptr inbounds nuw %struct.H5S_hyper_iter_t, ptr %49, i32 0, i32 2
  %51 = load i32, ptr %50, align 8, !tbaa !14
  %52 = sub nsw i32 %51, 1
  store i32 %52, ptr %6, align 4, !tbaa !10
  br label %53

53:                                               ; preds = %147, %43
  %54 = load i32, ptr %5, align 4, !tbaa !10
  %55 = icmp sge i32 %54, 0
  br i1 %55, label %56, label %148

56:                                               ; preds = %53
  %57 = load ptr, ptr %3, align 8, !tbaa !129
  %58 = getelementptr inbounds nuw %struct.H5S_sel_iter_t, ptr %57, i32 0, i32 7
  %59 = getelementptr inbounds nuw %struct.H5S_hyper_iter_t, ptr %58, i32 0, i32 7
  %60 = load i32, ptr %5, align 4, !tbaa !10
  %61 = sext i32 %60 to i64
  %62 = getelementptr inbounds [32 x i8], ptr %59, i64 0, i64 %61
  %63 = load i8, ptr %62, align 1, !tbaa !14, !range !12, !noundef !13
  %64 = trunc i8 %63 to i1
  br i1 %64, label %65, label %114

65:                                               ; preds = %56
  call void @llvm.lifetime.start.p0(i64 4, ptr %7) #7
  %66 = load i32, ptr %5, align 4, !tbaa !10
  store i32 %66, ptr %7, align 4, !tbaa !10
  br label %67

67:                                               ; preds = %82, %65
  %68 = load i32, ptr %5, align 4, !tbaa !10
  %69 = add nsw i32 %68, -1
  store i32 %69, ptr %5, align 4, !tbaa !10
  br label %70

70:                                               ; preds = %67
  %71 = load i32, ptr %5, align 4, !tbaa !10
  %72 = icmp sge i32 %71, 0
  br i1 %72, label %73, label %82

73:                                               ; preds = %70
  %74 = load ptr, ptr %3, align 8, !tbaa !129
  %75 = getelementptr inbounds nuw %struct.H5S_sel_iter_t, ptr %74, i32 0, i32 7
  %76 = getelementptr inbounds nuw %struct.H5S_hyper_iter_t, ptr %75, i32 0, i32 7
  %77 = load i32, ptr %5, align 4, !tbaa !10
  %78 = sext i32 %77 to i64
  %79 = getelementptr inbounds [32 x i8], ptr %76, i64 0, i64 %78
  %80 = load i8, ptr %79, align 1, !tbaa !14, !range !12, !noundef !13
  %81 = trunc i8 %80 to i1
  br label %82

82:                                               ; preds = %73, %70
  %83 = phi i1 [ false, %70 ], [ %81, %73 ]
  br i1 %83, label %67, label %84, !llvm.loop !207

84:                                               ; preds = %82
  %85 = load i32, ptr %5, align 4, !tbaa !10
  %86 = icmp slt i32 %85, 0
  br i1 %86, label %87, label %88

87:                                               ; preds = %84
  store i32 0, ptr %5, align 4, !tbaa !10
  br label %88

88:                                               ; preds = %87, %84
  %89 = load ptr, ptr %3, align 8, !tbaa !129
  %90 = getelementptr inbounds nuw %struct.H5S_sel_iter_t, ptr %89, i32 0, i32 7
  %91 = getelementptr inbounds nuw %struct.H5S_hyper_iter_t, ptr %90, i32 0, i32 0
  %92 = load i32, ptr %6, align 4, !tbaa !10
  %93 = sext i32 %92 to i64
  %94 = getelementptr inbounds [32 x i64], ptr %91, i64 0, i64 %93
  %95 = load i64, ptr %94, align 8, !tbaa !14
  %96 = load i32, ptr %7, align 4, !tbaa !10
  %97 = load i32, ptr %5, align 4, !tbaa !10
  %98 = sub nsw i32 %96, %97
  %99 = add nsw i32 %98, 1
  %100 = load ptr, ptr %3, align 8, !tbaa !129
  %101 = getelementptr inbounds nuw %struct.H5S_sel_iter_t, ptr %100, i32 0, i32 2
  %102 = load i32, ptr %5, align 4, !tbaa !10
  %103 = sext i32 %102 to i64
  %104 = getelementptr inbounds [32 x i64], ptr %101, i64 0, i64 %103
  %105 = load ptr, ptr %4, align 8, !tbaa !33
  %106 = load i32, ptr %5, align 4, !tbaa !10
  %107 = sext i32 %106 to i64
  %108 = getelementptr inbounds i64, ptr %105, i64 %107
  %109 = call i32 @H5VM_array_calc(i64 noundef %95, i32 noundef %99, ptr noundef %104, ptr noundef %108)
  %110 = load i32, ptr %5, align 4, !tbaa !10
  %111 = add nsw i32 %110, -1
  store i32 %111, ptr %5, align 4, !tbaa !10
  %112 = load i32, ptr %6, align 4, !tbaa !10
  %113 = add nsw i32 %112, -1
  store i32 %113, ptr %6, align 4, !tbaa !10
  call void @llvm.lifetime.end.p0(i64 4, ptr %7) #7
  br label %147

114:                                              ; preds = %56
  br label %115

115:                                              ; preds = %130, %114
  %116 = load i32, ptr %5, align 4, !tbaa !10
  %117 = icmp sge i32 %116, 0
  br i1 %117, label %118, label %128

118:                                              ; preds = %115
  %119 = load ptr, ptr %3, align 8, !tbaa !129
  %120 = getelementptr inbounds nuw %struct.H5S_sel_iter_t, ptr %119, i32 0, i32 7
  %121 = getelementptr inbounds nuw %struct.H5S_hyper_iter_t, ptr %120, i32 0, i32 7
  %122 = load i32, ptr %5, align 4, !tbaa !10
  %123 = sext i32 %122 to i64
  %124 = getelementptr inbounds [32 x i8], ptr %121, i64 0, i64 %123
  %125 = load i8, ptr %124, align 1, !tbaa !14, !range !12, !noundef !13
  %126 = trunc i8 %125 to i1
  %127 = xor i1 %126, true
  br label %128

128:                                              ; preds = %118, %115
  %129 = phi i1 [ false, %115 ], [ %127, %118 ]
  br i1 %129, label %130, label %146

130:                                              ; preds = %128
  %131 = load ptr, ptr %3, align 8, !tbaa !129
  %132 = getelementptr inbounds nuw %struct.H5S_sel_iter_t, ptr %131, i32 0, i32 7
  %133 = getelementptr inbounds nuw %struct.H5S_hyper_iter_t, ptr %132, i32 0, i32 0
  %134 = load i32, ptr %6, align 4, !tbaa !10
  %135 = sext i32 %134 to i64
  %136 = getelementptr inbounds [32 x i64], ptr %133, i64 0, i64 %135
  %137 = load i64, ptr %136, align 8, !tbaa !14
  %138 = load ptr, ptr %4, align 8, !tbaa !33
  %139 = load i32, ptr %5, align 4, !tbaa !10
  %140 = sext i32 %139 to i64
  %141 = getelementptr inbounds i64, ptr %138, i64 %140
  store i64 %137, ptr %141, align 8, !tbaa !15
  %142 = load i32, ptr %5, align 4, !tbaa !10
  %143 = add nsw i32 %142, -1
  store i32 %143, ptr %5, align 4, !tbaa !10
  %144 = load i32, ptr %6, align 4, !tbaa !10
  %145 = add nsw i32 %144, -1
  store i32 %145, ptr %6, align 4, !tbaa !10
  br label %115, !llvm.loop !208

146:                                              ; preds = %128
  br label %147

147:                                              ; preds = %146, %88
  br label %53, !llvm.loop !209

148:                                              ; preds = %53
  call void @llvm.lifetime.end.p0(i64 4, ptr %6) #7
  call void @llvm.lifetime.end.p0(i64 4, ptr %5) #7
  br label %160

149:                                              ; preds = %34, %28
  %150 = load ptr, ptr %4, align 8, !tbaa !33
  %151 = load ptr, ptr %3, align 8, !tbaa !129
  %152 = getelementptr inbounds nuw %struct.H5S_sel_iter_t, ptr %151, i32 0, i32 7
  %153 = getelementptr inbounds nuw %struct.H5S_hyper_iter_t, ptr %152, i32 0, i32 0
  %154 = getelementptr inbounds [32 x i64], ptr %153, i64 0, i64 0
  %155 = load ptr, ptr %3, align 8, !tbaa !129
  %156 = getelementptr inbounds nuw %struct.H5S_sel_iter_t, ptr %155, i32 0, i32 1
  %157 = load i32, ptr %156, align 8, !tbaa !131
  %158 = zext i32 %157 to i64
  %159 = mul i64 8, %158
  call void @llvm.memcpy.p0.p0.i64(ptr align 8 %150, ptr align 8 %154, i64 %159, i1 false)
  br label %160

160:                                              ; preds = %149, %148
  br label %172

161:                                              ; preds = %22
  %162 = load ptr, ptr %4, align 8, !tbaa !33
  %163 = load ptr, ptr %3, align 8, !tbaa !129
  %164 = getelementptr inbounds nuw %struct.H5S_sel_iter_t, ptr %163, i32 0, i32 7
  %165 = getelementptr inbounds nuw %struct.H5S_hyper_iter_t, ptr %164, i32 0, i32 0
  %166 = getelementptr inbounds [32 x i64], ptr %165, i64 0, i64 0
  %167 = load ptr, ptr %3, align 8, !tbaa !129
  %168 = getelementptr inbounds nuw %struct.H5S_sel_iter_t, ptr %167, i32 0, i32 1
  %169 = load i32, ptr %168, align 8, !tbaa !131
  %170 = zext i32 %169 to i64
  %171 = mul i64 8, %170
  call void @llvm.memcpy.p0.p0.i64(ptr align 8 %162, ptr align 8 %166, i64 %171, i1 false)
  br label %172

172:                                              ; preds = %161, %160
  br label %173

173:                                              ; preds = %172, %14
  ret i32 0
}