; Function Attrs: nounwind uwtable
define internal noundef i32 @H5S__hyper_iter_coords(ptr noundef %0, ptr noundef %1) #0 {
  %3 = load i8, ptr @H5S_init_g, align 1, !tbaa !3, !range !7, !noundef !8
  %4 = trunc nuw i8 %3 to i1
  %5 = load i8, ptr @H5_libterm_g, align 1, !range !7
  %6 = trunc nuw i8 %5 to i1
  %7 = xor i1 %6, true
  %8 = select i1 %4, i1 true, i1 %7
  br i1 %8, label %9, label %.loopexit, !prof !9

9:                                                ; preds = %2
  %10 = getelementptr inbounds nuw i8, ptr %0, i64 552
  %11 = getelementptr inbounds nuw i8, ptr %0, i64 1068
  %12 = load i8, ptr %11, align 4, !tbaa !10, !range !7, !noundef !8
  %13 = trunc nuw i8 %12 to i1
  br i1 %13, label %14, label %60

14:                                               ; preds = %9
  %15 = getelementptr inbounds nuw i8, ptr %0, i64 1064
  %16 = load i32, ptr %15, align 8, !tbaa !10
  %.not = icmp ne i32 %16, 0
  %.phi.trans.insert = getelementptr inbounds nuw i8, ptr %0, i64 8
  %.pre = load i32, ptr %.phi.trans.insert, align 8, !tbaa !123
  %17 = icmp ult i32 %16, %.pre
  %or.cond = select i1 %.not, i1 %17, i1 false
  br i1 %or.cond, label %18, label %.loopexit.sink.split

18:                                               ; preds = %14
  %19 = icmp sgt i32 %.pre, 0
  br i1 %19, label %.lr.ph56, label %.loopexit

.lr.ph56:                                         ; preds = %18
  %20 = add nsw i32 %.pre, -1
  %21 = add nsw i32 %16, -1
  %22 = getelementptr inbounds nuw i8, ptr %0, i64 2608
  %23 = getelementptr inbounds nuw i8, ptr %0, i64 16
  br label %24

24:                                               ; preds = %.lr.ph56, %.critedge2
  %.055 = phi i32 [ %20, %.lr.ph56 ], [ %.2, %.critedge2 ]
  %.04154 = phi i32 [ %21, %.lr.ph56 ], [ %.142, %.critedge2 ]
  %25 = zext nneg i32 %.055 to i64
  %26 = getelementptr inbounds nuw [32 x i8], ptr %22, i64 0, i64 %25
  %27 = load i8, ptr %26, align 1, !tbaa !10, !range !7, !noundef !8
  %28 = trunc nuw i8 %27 to i1
  br i1 %28, label %.preheader.preheader, label %.lr.ph.preheader

.preheader.preheader:                             ; preds = %24
  %smin = tail call i32 @llvm.smin.i32(i32 %.055, i32 0)
  %29 = add i32 %smin, -1
  br label %.preheader

.lr.ph.preheader:                                 ; preds = %24
  %30 = sext i32 %.04154 to i64
  br label %.lr.ph

.preheader:                                       ; preds = %.preheader.preheader, %33
  %indvars.iv62 = phi i64 [ %25, %.preheader.preheader ], [ %indvars.iv.next63, %33 ]
  %31 = trunc nuw i64 %indvars.iv62 to i32
  %32 = icmp sgt i32 %31, 0
  br i1 %32, label %33, label %.critedge

33:                                               ; preds = %.preheader
  %indvars.iv.next63 = add nsw i64 %indvars.iv62, -1
  %34 = and i64 %indvars.iv.next63, 4294967295
  %35 = getelementptr inbounds nuw [32 x i8], ptr %22, i64 0, i64 %34
  %36 = load i8, ptr %35, align 1, !tbaa !10, !range !7, !noundef !8
  %37 = trunc nuw i8 %36 to i1
  br i1 %37, label %.preheader, label %.critedge.split.loop.exit72, !llvm.loop !201

.critedge.split.loop.exit72:                      ; preds = %33
  %indvars.le = trunc i64 %indvars.iv.next63 to i32
  br label %.critedge

.critedge:                                        ; preds = %.preheader, %.critedge.split.loop.exit72
  %.lcssa = phi i32 [ %indvars.le, %.critedge.split.loop.exit72 ], [ %29, %.preheader ]
  %spec.store.select = tail call i32 @llvm.smax.i32(i32 %.lcssa, i32 0)
  %38 = sext i32 %.04154 to i64
  %39 = getelementptr inbounds [32 x i64], ptr %10, i64 0, i64 %38
  %40 = load i64, ptr %39, align 8, !tbaa !10
  %41 = add i32 %.055, 1
  %42 = sub i32 %41, %spec.store.select
  %43 = zext nneg i32 %spec.store.select to i64
  %44 = getelementptr inbounds nuw [32 x i64], ptr %23, i64 0, i64 %43
  %45 = getelementptr inbounds nuw i64, ptr %1, i64 %43
  %46 = tail call i32 @H5VM_array_calc(i64 noundef %40, i32 noundef %42, ptr noundef nonnull %44, ptr noundef %45) #14
  %47 = add nsw i32 %spec.store.select, -1
  %48 = add nsw i32 %.04154, -1
  br label %.critedge2

.lr.ph:                                           ; preds = %.lr.ph.preheader, %52
  %indvars.iv57 = phi i64 [ %30, %.lr.ph.preheader ], [ %indvars.iv.next58, %52 ]
  %indvars.iv = phi i64 [ %25, %.lr.ph.preheader ], [ %indvars.iv.next, %52 ]
  %49 = getelementptr inbounds nuw [32 x i8], ptr %22, i64 0, i64 %indvars.iv
  %50 = load i8, ptr %49, align 1, !tbaa !10, !range !7, !noundef !8
  %51 = trunc nuw i8 %50 to i1
  br i1 %51, label %.critedge2.loopexit, label %52

52:                                               ; preds = %.lr.ph
  %53 = getelementptr inbounds [32 x i64], ptr %10, i64 0, i64 %indvars.iv57
  %54 = load i64, ptr %53, align 8, !tbaa !10
  %55 = getelementptr inbounds nuw i64, ptr %1, i64 %indvars.iv
  store i64 %54, ptr %55, align 8, !tbaa !11
  %indvars.iv.next = add nsw i64 %indvars.iv, -1
  %indvars.iv.next58 = add nsw i64 %indvars.iv57, -1
  %56 = icmp sgt i64 %indvars.iv, 0
  br i1 %56, label %.lr.ph, label %.loopexit, !llvm.loop !202

.critedge2.loopexit:                              ; preds = %.lr.ph
  %57 = trunc nuw nsw i64 %indvars.iv to i32
  %58 = trunc nsw i64 %indvars.iv57 to i32
  br label %.critedge2

.critedge2:                                       ; preds = %.critedge2.loopexit, %.critedge
  %.142 = phi i32 [ %48, %.critedge ], [ %58, %.critedge2.loopexit ]
  %.2 = phi i32 [ %47, %.critedge ], [ %57, %.critedge2.loopexit ]
  %59 = icmp sgt i32 %.2, -1
  br i1 %59, label %24, label %.loopexit, !llvm.loop !203

60:                                               ; preds = %9
  %61 = getelementptr inbounds nuw i8, ptr %0, i64 8
  %62 = load i32, ptr %61, align 8, !tbaa !123
  br label %.loopexit.sink.split

.loopexit.sink.split:                             ; preds = %14, %60
  %.sink = phi i32 [ %62, %60 ], [ %.pre, %14 ]
  %63 = zext i32 %.sink to i64
  %64 = shl nuw nsw i64 %63, 3
  tail call void @llvm.memcpy.p0.p0.i64(ptr align 8 %1, ptr nonnull align 8 %10, i64 %64, i1 false)
  br label %.loopexit

.loopexit:                                        ; preds = %.critedge2, %52, %.loopexit.sink.split, %18, %2
  ret i32 0
}